target datalayout = "e-m:e-p270:32:32-p271:32:32-p272:64:64-i64:64-i128:128-f80:128-n8:16:32:64-S128"
target triple = "x86_64-pc-linux-gnu"

%struct.H5C_cache_entry_t = type { ptr, i64, i64, ptr, i8, ptr, i8, i8, i8, i8, i32, i8, i8, i8, i8, i8, i32, ptr, i32, i32, i32, i32, i32, i8, i8, ptr, ptr, ptr, ptr, ptr, ptr, i8, i32, i8, i64, ptr, i64, i64, i32, i8, i32, i32, i8, ptr, ptr, ptr }
%struct.H5EA_hdr_t = type { %struct.H5C_cache_entry_t, %struct.H5EA_create_t, i64, %struct.H5EA_stat_t, %struct.anon.1, i64, i64, i64, ptr, i64, i8, i64, i64, i8, i64, ptr, i64, ptr, i8, ptr, ptr }
%struct.H5EA_create_t = type { ptr, i8, i8, i8, i8, i8, i8 }
%struct.H5EA_stat_t = type { %struct.anon, %struct.anon.0 }
%struct.anon = type { i64, i64, i64 }
%struct.anon.0 = type { i64, i64, i64, i64, i64, i64 }
%struct.anon.1 = type { i64, ptr }
%struct.H5EA_class_t = type { i32, ptr, i64, ptr, ptr, ptr, ptr, ptr, ptr, ptr, ptr }
%struct.H5EA_dblock_t = type { %struct.H5C_cache_entry_t, i64, ptr, ptr, i64, i64, i8, ptr, ptr, i64, i64 }

@H5EA_init_g = external global i8, align 1
@H5_libterm_g = external global i8, align 1
@.str.5 = private unnamed_addr constant [103 x i8] c"generated/home/dtcxzyw/WorkSpace/Projects/compilers/llvm-opt-benchmark/bench/hdf5/hdf5/src/H5EAcache.c\00", align 1
@H5E_EARRAY_g = external global i64, align 8
@H5E_CANTENCODE_g = external global i64, align 8
@.str.41 = private unnamed_addr constant [5 x i8] c"EADB\00", align 1
@__func__.H5EA__cache_dblock_serialize = private unnamed_addr constant [29 x i8] c"H5EA__cache_dblock_serialize\00", align 1
@.str.46 = private unnamed_addr constant [44 x i8] c"can't encode extensible array data elements\00", align 1

; Function Attrs: nounwind uwtable
define internal i32 @H5EA__cache_dblock_serialize(ptr noundef %0, ptr noundef %1, i64 noundef %2, ptr noundef %3) #0 {
  %5 = alloca ptr, align 8
  %6 = alloca ptr, align 8
  %7 = alloca i64, align 8
  %8 = alloca ptr, align 8
  %9 = alloca ptr, align 8
  %10 = alloca ptr, align 8
  %11 = alloca i32, align 4
  %12 = alloca i32, align 4
  %13 = alloca i8, align 1
  %14 = alloca i64, align 8
  %15 = alloca i64, align 8
  %16 = alloca ptr, align 8
  store ptr %0, ptr %5, align 8, !tbaa !81
  store ptr %1, ptr %6, align 8, !tbaa !3
  store i64 %2, ptr %7, align 8, !tbaa !19
  store ptr %3, ptr %8, align 8, !tbaa !3
  call void @llvm.lifetime.start.p0(i64 8, ptr %9) #8
  %17 = load ptr, ptr %8, align 8, !tbaa !3
  store ptr %17, ptr %9, align 8, !tbaa !157
  call void @llvm.lifetime.start.p0(i64 8, ptr %10) #8
  %18 = load ptr, ptr %6, align 8, !tbaa !3
  store ptr %18, ptr %10, align 8, !tbaa !20
  call void @llvm.lifetime.start.p0(i64 4, ptr %11) #8
  call void @llvm.lifetime.start.p0(i64 4, ptr %12) #8
  store i32 0, ptr %12, align 4, !tbaa !22
  call void @llvm.lifetime.start.p0(i64 1, ptr %13) #8
  store i8 0, ptr %13, align 1, !tbaa !11
  %19 = load i8, ptr @H5EA_init_g, align 1, !tbaa !11, !range !13, !noundef !14
  %20 = trunc i8 %19 to i1
  br i1 %20, label %25, label %21

21:                                               ; preds = %4
  %22 = load i8, ptr @H5_libterm_g, align 1, !tbaa !11, !range !13, !noundef !14
  %23 = trunc i8 %22 to i1
  %24 = xor i1 %23, true
  br label %25

25:                                               ; preds = %21, %4
  %26 = phi i1 [ true, %4 ], [ %24, %21 ]
  %27 = xor i1 %26, true
  %28 = xor i1 %27, true
  %29 = zext i1 %28 to i32
  %30 = sext i32 %29 to i64
  %31 = call i64 @llvm.expect.i64(i64 %30, i64 1)
  %32 = icmp ne i64 %31, 0
  br i1 %32, label %33, label %192

33:                                               ; preds = %25
  %34 = load ptr, ptr %10, align 8, !tbaa !20
  call void @llvm.memcpy.p0.p0.i64(ptr align 1 %34, ptr align 1 @.str.41, i64 4, i1 false)
  %35 = load ptr, ptr %10, align 8, !tbaa !20
  %36 = getelementptr inbounds i8, ptr %35, i64 4
  store ptr %36, ptr %10, align 8, !tbaa !20
  %37 = load ptr, ptr %10, align 8, !tbaa !20
  %38 = getelementptr inbounds nuw i8, ptr %37, i32 1
  store ptr %38, ptr %10, align 8, !tbaa !20
  store i8 0, ptr %37, align 1, !tbaa !46
  %39 = load ptr, ptr %9, align 8, !tbaa !157
  %40 = getelementptr inbounds nuw %struct.H5EA_dblock_t, ptr %39, i32 0, i32 3
  %41 = load ptr, ptr %40, align 8, !tbaa !152
  %42 = getelementptr inbounds nuw %struct.H5EA_hdr_t, ptr %41, i32 0, i32 1
  %43 = getelementptr inbounds nuw %struct.H5EA_create_t, ptr %42, i32 0, i32 0
  %44 = load ptr, ptr %43, align 8, !tbaa !48
  %45 = getelementptr inbounds nuw %struct.H5EA_class_t, ptr %44, i32 0, i32 0
  %46 = load i32, ptr %45, align 8, !tbaa !82
  %47 = trunc i32 %46 to i8
  %48 = load ptr, ptr %10, align 8, !tbaa !20
  %49 = getelementptr inbounds nuw i8, ptr %48, i32 1
  store ptr %49, ptr %10, align 8, !tbaa !20
  store i8 %47, ptr %48, align 1, !tbaa !46
  %50 = load ptr, ptr %5, align 8, !tbaa !81
  %51 = load ptr, ptr %9, align 8, !tbaa !157
  %52 = getelementptr inbounds nuw %struct.H5EA_dblock_t, ptr %51, i32 0, i32 3
  %53 = load ptr, ptr %52, align 8, !tbaa !152
  %54 = getelementptr inbounds nuw %struct.H5EA_hdr_t, ptr %53, i32 0, i32 6
  %55 = load i64, ptr %54, align 8, !tbaa !29
  call void @H5F_addr_encode(ptr noundef %50, ptr noundef %10, i64 noundef %55)
  br label %56

56:                                               ; preds = %33
  call void @llvm.lifetime.start.p0(i64 8, ptr %14) #8
  %57 = load ptr, ptr %9, align 8, !tbaa !157
  %58 = getelementptr inbounds nuw %struct.H5EA_dblock_t, ptr %57, i32 0, i32 1
  %59 = load i64, ptr %58, align 8, !tbaa !162
  store i64 %59, ptr %14, align 8, !tbaa !19
  call void @llvm.lifetime.start.p0(i64 8, ptr %15) #8
  call void @llvm.lifetime.start.p0(i64 8, ptr %16) #8
  %60 = load ptr, ptr %10, align 8, !tbaa !20
  store ptr %60, ptr %16, align 8, !tbaa !20
  store i64 0, ptr %15, align 8, !tbaa !19
  br label %61

61:                                               ; preds = %76, %56
  %62 = load i64, ptr %15, align 8, !tbaa !19
  %63 = load ptr, ptr %9, align 8, !tbaa !157
  %64 = getelementptr inbounds nuw %struct.H5EA_dblock_t, ptr %63, i32 0, i32 3
  %65 = load ptr, ptr %64, align 8, !tbaa !152
  %66 = getelementptr inbounds nuw %struct.H5EA_hdr_t, ptr %65, i32 0, i32 13
  %67 = load i8, ptr %66, align 8, !tbaa !131
  %68 = zext i8 %67 to i64
  %69 = icmp ult i64 %62, %68
  br i1 %69, label %70, label %81

70:                                               ; preds = %61
  %71 = load i64, ptr %14, align 8, !tbaa !19
  %72 = and i64 %71, 255
  %73 = trunc i64 %72 to i8
  %74 = load ptr, ptr %16, align 8, !tbaa !20
  %75 = getelementptr inbounds nuw i8, ptr %74, i32 1
  store ptr %75, ptr %16, align 8, !tbaa !20
  store i8 %73, ptr %74, align 1, !tbaa !46
  br label %76

76:                                               ; preds = %70
  %77 = load i64, ptr %15, align 8, !tbaa !19
  %78 = add i64 %77, 1
  store i64 %78, ptr %15, align 8, !tbaa !19
  %79 = load i64, ptr %14, align 8, !tbaa !19
  %80 = lshr i64 %79, 8
  store i64 %80, ptr %14, align 8, !tbaa !19
  br label %61, !llvm.loop !166

81:                                               ; preds = %61
  %82 = load ptr, ptr %10, align 8, !tbaa !20
  %83 = load ptr, ptr %9, align 8, !tbaa !157
  %84 = getelementptr inbounds nuw %struct.H5EA_dblock_t, ptr %83, i32 0, i32 3
  %85 = load ptr, ptr %84, align 8, !tbaa !152
  %86 = getelementptr inbounds nuw %struct.H5EA_hdr_t, ptr %85, i32 0, i32 13
  %87 = load i8, ptr %86, align 8, !tbaa !131
  %88 = zext i8 %87 to i32
  %89 = sext i32 %88 to i64
  %90 = getelementptr inbounds i8, ptr %82, i64 %89
  store ptr %90, ptr %10, align 8, !tbaa !20
  call void @llvm.lifetime.end.p0(i64 8, ptr %16) #8
  call void @llvm.lifetime.end.p0(i64 8, ptr %15) #8
  call void @llvm.lifetime.end.p0(i64 8, ptr %14) #8
  br label %91

91:                                               ; preds = %81
  br label %92

92:                                               ; preds = %91
  %93 = load ptr, ptr %9, align 8, !tbaa !157
  %94 = getelementptr inbounds nuw %struct.H5EA_dblock_t, ptr %93, i32 0, i32 10
  %95 = load i64, ptr %94, align 8, !tbaa !156
  %96 = icmp ne i64 %95, 0
  br i1 %96, label %153, label %97

97:                                               ; preds = %92
  %98 = load ptr, ptr %9, align 8, !tbaa !157
  %99 = getelementptr inbounds nuw %struct.H5EA_dblock_t, ptr %98, i32 0, i32 3
  %100 = load ptr, ptr %99, align 8, !tbaa !152
  %101 = getelementptr inbounds nuw %struct.H5EA_hdr_t, ptr %100, i32 0, i32 1
  %102 = getelementptr inbounds nuw %struct.H5EA_create_t, ptr %101, i32 0, i32 0
  %103 = load ptr, ptr %102, align 8, !tbaa !48
  %104 = getelementptr inbounds nuw %struct.H5EA_class_t, ptr %103, i32 0, i32 6
  %105 = load ptr, ptr %104, align 8, !tbaa !111
  %106 = load ptr, ptr %10, align 8, !tbaa !20
  %107 = load ptr, ptr %9, align 8, !tbaa !157
  %108 = getelementptr inbounds nuw %struct.H5EA_dblock_t, ptr %107, i32 0, i32 2
  %109 = load ptr, ptr %108, align 8, !tbaa !164
  %110 = load ptr, ptr %9, align 8, !tbaa !157
  %111 = getelementptr inbounds nuw %struct.H5EA_dblock_t, ptr %110, i32 0, i32 9
  %112 = load i64, ptr %111, align 8, !tbaa !155
  %113 = load ptr, ptr %9, align 8, !tbaa !157
  %114 = getelementptr inbounds nuw %struct.H5EA_dblock_t, ptr %113, i32 0, i32 3
  %115 = load ptr, ptr %114, align 8, !tbaa !152
  %116 = getelementptr inbounds nuw %struct.H5EA_hdr_t, ptr %115, i32 0, i32 17
  %117 = load ptr, ptr %116, align 8, !tbaa !105
  %118 = call i32 %105(ptr noundef %106, ptr noundef %109, i64 noundef %112, ptr noundef %117)
  %119 = icmp slt i32 %118, 0
  br i1 %119, label %120, label %139

120:                                              ; preds = %97
  br label %121

121:                                              ; preds = %120
  br label %122

122:                                              ; preds = %121
  br label %123

123:                                              ; preds = %122
  %124 = load i64, ptr @H5E_EARRAY_g, align 8, !tbaa !19
  %125 = load i64, ptr @H5E_CANTENCODE_g, align 8, !tbaa !19
  %126 = call i32 (ptr, ptr, i32, i64, i64, ptr, ...) @H5E_printf_stack(ptr noundef @.str.5, ptr noundef @__func__.H5EA__cache_dblock_serialize, i32 noundef 1651, i64 noundef %124, i64 noundef %125, ptr noundef @.str.46)
  br label %127

127:                                              ; preds = %123
  br label %128

128:                                              ; preds = %127
  store i8 1, ptr %13, align 1, !tbaa !11
  %129 = load i8, ptr %13, align 1, !tbaa !11, !range !13, !noundef !14
  %130 = trunc i8 %129 to i1
  %131 = zext i1 %130 to i8
  store i8 %131, ptr %13, align 1, !tbaa !11
  br label %132

132:                                              ; preds = %128
  br label %133

133:                                              ; preds = %132
  br label %134

134:                                              ; preds = %133
  store i32 -1, ptr %12, align 4, !tbaa !22
  br label %191

135:                                              ; No predecessors!
  br label %136

136:                                              ; preds = %135
  br label %137

137:                                              ; preds = %136
  br label %138

138:                                              ; preds = %137
  br label %139

139:                                              ; preds = %138, %97
  %140 = load ptr, ptr %9, align 8, !tbaa !157
  %141 = getelementptr inbounds nuw %struct.H5EA_dblock_t, ptr %140, i32 0, i32 9
  %142 = load i64, ptr %141, align 8, !tbaa !155
  %143 = load ptr, ptr %9, align 8, !tbaa !157
  %144 = getelementptr inbounds nuw %struct.H5EA_dblock_t, ptr %143, i32 0, i32 3
  %145 = load ptr, ptr %144, align 8, !tbaa !152
  %146 = getelementptr inbounds nuw %struct.H5EA_hdr_t, ptr %145, i32 0, i32 1
  %147 = getelementptr inbounds nuw %struct.H5EA_create_t, ptr %146, i32 0, i32 1
  %148 = load i8, ptr %147, align 8, !tbaa !49
  %149 = zext i8 %148 to i64
  %150 = mul i64 %142, %149
  %151 = load ptr, ptr %10, align 8, !tbaa !20
  %152 = getelementptr inbounds nuw i8, ptr %151, i64 %150
  store ptr %152, ptr %10, align 8, !tbaa !20
  br label %153

153:                                              ; preds = %139, %92
  %154 = load ptr, ptr %6, align 8, !tbaa !3
  %155 = load ptr, ptr %10, align 8, !tbaa !20
  %156 = load ptr, ptr %6, align 8, !tbaa !3
  %157 = ptrtoint ptr %155 to i64
  %158 = ptrtoint ptr %156 to i64
  %159 = sub i64 %157, %158
  %160 = call i32 @H5_checksum_metadata(ptr noundef %154, i64 noundef %159, i32 noundef 0)
  store i32 %160, ptr %11, align 4, !tbaa !22
  br label %161

161:                                              ; preds = %153
  %162 = load i32, ptr %11, align 4, !tbaa !22
  %163 = and i32 %162, 255
  %164 = trunc i32 %163 to i8
  %165 = load ptr, ptr %10, align 8, !tbaa !20
  store i8 %164, ptr %165, align 1, !tbaa !46
  %166 = load ptr, ptr %10, align 8, !tbaa !20
  %167 = getelementptr inbounds nuw i8, ptr %166, i32 1
  store ptr %167, ptr %10, align 8, !tbaa !20
  %168 = load i32, ptr %11, align 4, !tbaa !22
  %169 = lshr i32 %168, 8
  %170 = and i32 %169, 255
  %171 = trunc i32 %170 to i8
  %172 = load ptr, ptr %10, align 8, !tbaa !20
  store i8 %171, ptr %172, align 1, !tbaa !46
  %173 = load ptr, ptr %10, align 8, !tbaa !20
  %174 = getelementptr inbounds nuw i8, ptr %173, i32 1
  store ptr %174, ptr %10, align 8, !tbaa !20
  %175 = load i32, ptr %11, align 4, !tbaa !22
  %176 = lshr i32 %175, 16
  %177 = and i32 %176, 255
  %178 = trunc i32 %177 to i8
  %179 = load ptr, ptr %10, align 8, !tbaa !20
  store i8 %178, ptr %179, align 1, !tbaa !46
  %180 = load ptr, ptr %10, align 8, !tbaa !20
  %181 = getelementptr inbounds nuw i8, ptr %180, i32 1
  store ptr %181, ptr %10, align 8, !tbaa !20
  %182 = load i32, ptr %11, align 4, !tbaa !22
  %183 = lshr i32 %182, 24
  %184 = and i32 %183, 255
  %185 = trunc i32 %184 to i8
  %186 = load ptr, ptr %10, align 8, !tbaa !20
  store i8 %185, ptr %186, align 1, !tbaa !46
  %187 = load ptr, ptr %10, align 8, !tbaa !20
  %188 = getelementptr inbounds nuw i8, ptr %187, i32 1
  store ptr %188, ptr %10, align 8, !tbaa !20
  br label %189

189:                                              ; preds = %161
  br label %190

190:                                              ; preds = %189
  br label %191

191:                                              ; preds = %190, %134
  br label %192

192:                                              ; preds = %191, %25
  %193 = load i32, ptr %12, align 4, !tbaa !22
  call void @llvm.lifetime.end.p0(i64 1, ptr %13) #8
  call void @llvm.lifetime.end.p0(i64 4, ptr %12) #8
  call void @llvm.lifetime.end.p0(i64 4, ptr %11) #8
  call void @llvm.lifetime.end.p0(i64 8, ptr %10) #8
  call void @llvm.lifetime.end.p0(i64 8, ptr %9) #8
  ret i32 %193
}