; Function Attrs: nounwind uwtable
define internal range(i32 -1, 1) i32 @H5EA__cache_dblock_serialize(ptr noundef %0, ptr noundef %1, i64 %2, ptr noundef readonly captures(none) %3) #0 {
  %5 = alloca ptr, align 8
  call void @llvm.lifetime.start.p0(i64 8, ptr nonnull %5) #6
  %6 = load i8, ptr @H5EA_init_g, align 1, !tbaa !3, !range !7, !noundef !8
  %7 = trunc nuw i8 %6 to i1
  %8 = load i8, ptr @H5_libterm_g, align 1, !range !7
  %9 = trunc nuw i8 %8 to i1
  %10 = xor i1 %9, true
  %11 = select i1 %7, i1 true, i1 %10
  br i1 %11, label %12, label %90, !prof !9

12:                                               ; preds = %4
  store i32 1111769413, ptr %1, align 1
  %13 = getelementptr inbounds nuw i8, ptr %1, i64 4
  %14 = getelementptr inbounds nuw i8, ptr %1, i64 5
  store i8 0, ptr %13, align 1, !tbaa !39
  %15 = getelementptr inbounds nuw i8, ptr %3, i64 264
  %16 = load ptr, ptr %15, align 8, !tbaa !139
  %17 = getelementptr inbounds nuw i8, ptr %16, i64 248
  %18 = load ptr, ptr %17, align 8, !tbaa !41
  %19 = load i32, ptr %18, align 8, !tbaa !69
  %20 = trunc i32 %19 to i8
  %21 = getelementptr inbounds nuw i8, ptr %1, i64 6
  store ptr %21, ptr %5, align 8, !tbaa !18
  store i8 %20, ptr %14, align 1, !tbaa !39
  %22 = load ptr, ptr %15, align 8, !tbaa !139
  %23 = getelementptr inbounds nuw i8, ptr %22, i64 368
  %24 = load i64, ptr %23, align 8, !tbaa !21
  call void @H5F_addr_encode(ptr noundef %0, ptr noundef nonnull %5, i64 noundef %24) #6
  %25 = load ptr, ptr %5, align 8, !tbaa !18
  %26 = load ptr, ptr %15, align 8, !tbaa !139
  %27 = getelementptr inbounds nuw i8, ptr %26, i64 424
  %28 = load i8, ptr %27, align 8, !tbaa !108
  %.not35 = icmp eq i8 %28, 0
  br i1 %.not35, label %._crit_edge, label %.lr.ph.preheader

.lr.ph.preheader:                                 ; preds = %12
  %29 = getelementptr inbounds nuw i8, ptr %3, i64 248
  %30 = load i64, ptr %29, align 8, !tbaa !135
  br label %.lr.ph

.lr.ph:                                           ; preds = %.lr.ph.preheader, %.lr.ph
  %.033 = phi ptr [ %32, %.lr.ph ], [ %25, %.lr.ph.preheader ]
  %.02732 = phi i64 [ %33, %.lr.ph ], [ 0, %.lr.ph.preheader ]
  %.02831 = phi i64 [ %34, %.lr.ph ], [ %30, %.lr.ph.preheader ]
  %31 = trunc i64 %.02831 to i8
  %32 = getelementptr inbounds nuw i8, ptr %.033, i64 1
  store i8 %31, ptr %.033, align 1, !tbaa !39
  %33 = add nuw nsw i64 %.02732, 1
  %34 = lshr i64 %.02831, 8
  %35 = load ptr, ptr %15, align 8, !tbaa !139
  %36 = getelementptr inbounds nuw i8, ptr %35, i64 424
  %37 = load i8, ptr %36, align 8, !tbaa !108
  %38 = zext i8 %37 to i64
  %39 = icmp samesign ult i64 %33, %38
  br i1 %39, label %.lr.ph, label %._crit_edge.loopexit, !llvm.loop !142

._crit_edge.loopexit:                             ; preds = %.lr.ph
  %.pre = load ptr, ptr %5, align 8, !tbaa !18
  br label %._crit_edge

._crit_edge:                                      ; preds = %._crit_edge.loopexit, %12
  %40 = phi ptr [ %25, %12 ], [ %.pre, %._crit_edge.loopexit ]
  %.lcssa30 = phi ptr [ %26, %12 ], [ %35, %._crit_edge.loopexit ]
  %.lcssa = phi i64 [ 0, %12 ], [ %38, %._crit_edge.loopexit ]
  %41 = getelementptr inbounds nuw i8, ptr %40, i64 %.lcssa
  store ptr %41, ptr %5, align 8, !tbaa !18
  %42 = getelementptr inbounds nuw i8, ptr %3, i64 320
  %43 = load i64, ptr %42, align 8, !tbaa !137
  %.not = icmp eq i64 %43, 0
  br i1 %.not, label %44, label %70

44:                                               ; preds = %._crit_edge
  %45 = getelementptr inbounds nuw i8, ptr %.lcssa30, i64 248
  %46 = load ptr, ptr %45, align 8, !tbaa !41
  %47 = getelementptr inbounds nuw i8, ptr %46, i64 48
  %48 = load ptr, ptr %47, align 8, !tbaa !95
  %49 = getelementptr inbounds nuw i8, ptr %3, i64 256
  %50 = load ptr, ptr %49, align 8, !tbaa !138
  %51 = getelementptr inbounds nuw i8, ptr %3, i64 312
  %52 = load i64, ptr %51, align 8, !tbaa !140
  %53 = getelementptr inbounds nuw i8, ptr %.lcssa30, i64 456
  %54 = load ptr, ptr %53, align 8, !tbaa !86
  %55 = call i32 %48(ptr noundef %41, ptr noundef %50, i64 noundef %52, ptr noundef %54) #6
  %56 = icmp slt i32 %55, 0
  br i1 %56, label %57, label %61

57:                                               ; preds = %44
  %58 = load i64, ptr @H5E_EARRAY_g, align 8, !tbaa !15
  %59 = load i64, ptr @H5E_CANTENCODE_g, align 8, !tbaa !15
  %60 = call i32 (ptr, ptr, i32, i64, i64, ptr, ...) @H5E_printf_stack(ptr noundef nonnull @.str.5, ptr noundef nonnull @__func__.H5EA__cache_dblock_serialize, i32 noundef 1651, i64 noundef %58, i64 noundef %59, ptr noundef nonnull @.str.46) #6
  br label %90

61:                                               ; preds = %44
  %62 = load i64, ptr %51, align 8, !tbaa !140
  %63 = load ptr, ptr %15, align 8, !tbaa !139
  %64 = getelementptr inbounds nuw i8, ptr %63, i64 256
  %65 = load i8, ptr %64, align 8, !tbaa !42
  %66 = zext i8 %65 to i64
  %67 = mul i64 %62, %66
  %68 = load ptr, ptr %5, align 8, !tbaa !18
  %69 = getelementptr inbounds nuw i8, ptr %68, i64 %67
  store ptr %69, ptr %5, align 8, !tbaa !18
  br label %70

70:                                               ; preds = %61, %._crit_edge
  %71 = phi ptr [ %69, %61 ], [ %41, %._crit_edge ]
  %72 = ptrtoint ptr %71 to i64
  %73 = ptrtoint ptr %1 to i64
  %74 = sub i64 %72, %73
  %75 = call i32 @H5_checksum_metadata(ptr noundef nonnull %1, i64 noundef %74, i32 noundef 0) #6
  %76 = trunc i32 %75 to i8
  %77 = load ptr, ptr %5, align 8, !tbaa !18
  store i8 %76, ptr %77, align 1, !tbaa !39
  %78 = load ptr, ptr %5, align 8, !tbaa !18
  %79 = getelementptr inbounds nuw i8, ptr %78, i64 1
  store ptr %79, ptr %5, align 8, !tbaa !18
  %80 = lshr i32 %75, 8
  %81 = trunc i32 %80 to i8
  store i8 %81, ptr %79, align 1, !tbaa !39
  %82 = load ptr, ptr %5, align 8, !tbaa !18
  %83 = getelementptr inbounds nuw i8, ptr %82, i64 1
  store ptr %83, ptr %5, align 8, !tbaa !18
  %84 = lshr i32 %75, 16
  %85 = trunc i32 %84 to i8
  store i8 %85, ptr %83, align 1, !tbaa !39
  %86 = load ptr, ptr %5, align 8, !tbaa !18
  %87 = getelementptr inbounds nuw i8, ptr %86, i64 1
  %88 = lshr i32 %75, 24
  %89 = trunc nuw i32 %88 to i8
  store i8 %89, ptr %87, align 1, !tbaa !39
  br label %90

90:                                               ; preds = %57, %70, %4
  %.029 = phi i32 [ 0, %70 ], [ -1, %57 ], [ 0, %4 ]
  call void @llvm.lifetime.end.p0(i64 8, ptr nonnull %5) #6
  ret i32 %.029
}